; Function Attrs: mustprogress nounwind uwtable
define void @_ZN6icu_7518BurmeseBreakEngineD2Ev(ptr noundef nonnull align 8 dereferenceable(816) %this) unnamed_addr #3 align 2 {
entry:
  store ptr getelementptr inbounds ({ [9 x ptr] }, ptr @_ZTVN6icu_7518BurmeseBreakEngineE, i64 0, i32 0, i64 2), ptr %this, align 8
  %fDictionary = getelementptr inbounds i8, ptr %this, i64 808
  %0 = load ptr, ptr %fDictionary, align 8
  %isnull = icmp eq ptr %0, null
  br i1 %isnull, label %delete.end, label %delete.notnull

delete.notnull:                                   ; preds = %entry
  %vtable = load ptr, ptr %0, align 8
  %vfn = getelementptr inbounds i8, ptr %vtable, i64 8
  %1 = load ptr, ptr %vfn, align 8
  tail call void %1(ptr noundef nonnull align 8 dereferenceable(8) %0) #9
  br label %delete.end

delete.end:                                       ; preds = %delete.notnull, %entry
  %fMarkSet = getelementptr inbounds i8, ptr %this, i64 608
  tail call void @_ZN6icu_7510UnicodeSetD1Ev(ptr noundef nonnull align 8 dereferenceable(200) %fMarkSet) #9
  %fBeginWordSet = getelementptr inbounds i8, ptr %this, i64 408
  tail call void @_ZN6icu_7510UnicodeSetD1Ev(ptr noundef nonnull align 8 dereferenceable(200) %fBeginWordSet) #9
  %fEndWordSet = getelementptr inbounds i8, ptr %this, i64 208
  tail call void @_ZN6icu_7510UnicodeSetD1Ev(ptr noundef nonnull align 8 dereferenceable(200) %fEndWordSet) #9
  store ptr getelementptr inbounds ({ [9 x ptr] }, ptr @_ZTVN6icu_7521DictionaryBreakEngineE, i64 0, i32 0, i64 2), ptr %this, align 8
  %fSet.i = getelementptr inbounds i8, ptr %this, i64 8
  tail call void @_ZN6icu_7510UnicodeSetD1Ev(ptr noundef nonnull align 8 dereferenceable(200) %fSet.i) #9
  tail call void @_ZN6icu_7519LanguageBreakEngineD2Ev(ptr noundef nonnull align 8 dereferenceable(8) %this) #9
  ret void
}